; Function Attrs: mustprogress nofree norecurse nosync nounwind willreturn memory(argmem: readwrite) uwtable
define internal noundef zeroext i1 @_ZNSt17_Function_handlerIFN5arrow8internal6FnOnceIFvRKNS0_10FutureImplEEEEvEZNKS0_6FutureINS1_5EmptyEE14TryAddCallbackIZZNS0_4util12_GLOBAL__N_131ThrottledAsyncTaskSchedulerImpl10SubmitTaskESt10unique_ptrINSD_18AsyncTaskScheduler4TaskESt14default_deleteISI_EEibENUlvE_clEvEUlvE_ZZZNSF_10SubmitTaskESL_ibENSM_clEvENKSN_clEvEUlRKNS0_6StatusEE_NSB_21WrapStatusyOnComplete8CallbackISR_EEEEbT_NS0_15CallbackOptionsEEUlvE_E10_M_managerERSt9_Any_dataRKSZ_St18_Manager_operation(ptr nocapture noundef nonnull writeonly align 8 dereferenceable(16) %__dest, ptr noundef nonnull align 8 dereferenceable(16) %__source, i32 noundef %__op) #13 align 2 personality ptr @__gxx_personality_v0 {
entry:
  switch i32 %__op, label %sw.epilog [
    i32 0, label %sw.bb
    i32 1, label %sw.bb1
    i32 2, label %sw.bb4.i
  ]

sw.bb:                                            ; preds = %entry
  store ptr @_ZTIZNK5arrow6FutureINS_8internal5EmptyEE14TryAddCallbackIZZNS_4util12_GLOBAL__N_131ThrottledAsyncTaskSchedulerImpl10SubmitTaskESt10unique_ptrINS5_18AsyncTaskScheduler4TaskESt14default_deleteISA_EEibENUlvE_clEvEUlvE_ZZZNS7_10SubmitTaskESD_ibENSE_clEvENKSF_clEvEUlRKNS_6StatusEE_NS3_21WrapStatusyOnComplete8CallbackISJ_EEEEbT_NS_15CallbackOptionsEEUlvE_, ptr %__dest, align 8
  br label %sw.epilog

sw.bb1:                                           ; preds = %entry
  store ptr %__source, ptr %__dest, align 8
  br label %sw.epilog

sw.bb4.i:                                         ; preds = %entry
  %call5.val.i = load i64, ptr %__source, align 8
  store i64 %call5.val.i, ptr %__dest, align 8
  br label %sw.epilog

sw.epilog:                                        ; preds = %entry, %sw.bb4.i, %sw.bb1, %sw.bb
  ret i1 false
}